; Function Attrs: nounwind uwtable
define ptr @l_Array_foldlMUnsafe_fold___at_Lean_Elab_Deriving_Ord_mkOrdInstanceHandler___spec__1___boxed(ptr noundef %0, ptr noundef %1, ptr noundef %2, ptr noundef %3, ptr noundef %4, ptr noundef %5, ptr noundef %6) local_unnamed_addr #0 {
  %8 = getelementptr i8, ptr %1, i64 8
  %.val18 = load i64, ptr %8, align 8, !tbaa !16
  %9 = ptrtoint ptr %1 to i64
  %10 = and i64 %9, 1
  %.not = icmp eq i64 %10, 0
  br i1 %.not, label %11, label %lean_dec.exit13

11:                                               ; preds = %7
  %12 = load i32, ptr %1, align 4, !tbaa !8
  %13 = icmp sgt i32 %12, 1
  br i1 %13, label %14, label %16, !prof !11

14:                                               ; preds = %11
  %15 = add nsw i32 %12, -1
  store i32 %15, ptr %1, align 4, !tbaa !8
  br label %lean_dec.exit13

16:                                               ; preds = %11
  %.not.i = icmp eq i32 %12, 0
  br i1 %.not.i, label %lean_dec.exit13, label %17

17:                                               ; preds = %16
  tail call void @lean_dec_ref_cold(ptr noundef nonnull %1) #5
  br label %lean_dec.exit13

lean_dec.exit13:                                  ; preds = %17, %16, %14, %7
  %18 = getelementptr i8, ptr %2, i64 8
  %.val = load i64, ptr %18, align 8, !tbaa !16
  %19 = ptrtoint ptr %2 to i64
  %20 = and i64 %19, 1
  %.not19 = icmp eq i64 %20, 0
  br i1 %.not19, label %21, label %lean_dec.exit12

21:                                               ; preds = %lean_dec.exit13
  %22 = load i32, ptr %2, align 4, !tbaa !8
  %23 = icmp sgt i32 %22, 1
  br i1 %23, label %24, label %26, !prof !11

24:                                               ; preds = %21
  %25 = add nsw i32 %22, -1
  store i32 %25, ptr %2, align 4, !tbaa !8
  br label %lean_dec.exit12

26:                                               ; preds = %21
  %.not.i14 = icmp eq i32 %22, 0
  br i1 %.not.i14, label %lean_dec.exit12, label %27

27:                                               ; preds = %26
  tail call void @lean_dec_ref_cold(ptr noundef nonnull %2) #5
  br label %lean_dec.exit12

lean_dec.exit12:                                  ; preds = %27, %26, %24, %lean_dec.exit13
  %28 = tail call ptr @l_Array_foldlMUnsafe_fold___at_Lean_Elab_Deriving_Ord_mkOrdInstanceHandler___spec__1(ptr noundef %0, i64 noundef %.val18, i64 noundef %.val, ptr noundef %3, ptr noundef %4, ptr noundef %5, ptr noundef %6)
  %29 = ptrtoint ptr %0 to i64
  %30 = and i64 %29, 1
  %.not20 = icmp eq i64 %30, 0
  br i1 %.not20, label %31, label %lean_dec.exit

31:                                               ; preds = %lean_dec.exit12
  %32 = load i32, ptr %0, align 4, !tbaa !8
  %33 = icmp sgt i32 %32, 1
  br i1 %33, label %34, label %36, !prof !11

34:                                               ; preds = %31
  %35 = add nsw i32 %32, -1
  store i32 %35, ptr %0, align 4, !tbaa !8
  br label %lean_dec.exit

36:                                               ; preds = %31
  %.not.i16 = icmp eq i32 %32, 0
  br i1 %.not.i16, label %lean_dec.exit, label %37

37:                                               ; preds = %36
  tail call void @lean_dec_ref_cold(ptr noundef nonnull %0) #5
  br label %lean_dec.exit

lean_dec.exit:                                    ; preds = %37, %36, %34, %lean_dec.exit12
  ret ptr %28
}